target datalayout = "e-m:e-p270:32:32-p271:32:32-p272:64:64-i64:64-i128:128-f80:128-n8:16:32:64-S128"
target triple = "x86_64-pc-linux-gnu"

%union.pthread_mutex_t = type { %struct.__pthread_mutex_s }
%struct.__pthread_mutex_s = type { i32, i32, i32, i32, i32, i16, i16, %struct.__pthread_internal_list }
%struct.__pthread_internal_list = type { ptr, ptr }
%"struct.google::protobuf::Metadata" = type { ptr, ptr }
%"class.google::protobuf::internal::WrappedMutex" = type { %"class.std::mutex" }
%"class.std::mutex" = type { %"class.std::__mutex_base" }
%"class.std::__mutex_base" = type { %union.pthread_mutex_t }
%"struct.std::pair" = type { ptr, ptr }
%"struct.google::protobuf::(anonymous namespace)::MetadataOwner" = type { %"class.google::protobuf::internal::WrappedMutex", %"class.std::vector.33" }
%"class.std::vector.33" = type { %"struct.std::_Vector_base.34" }
%"struct.std::_Vector_base.34" = type { %"struct.std::_Vector_base<std::pair<const google::protobuf::Metadata *, const google::protobuf::Metadata *>, std::allocator<std::pair<const google::protobuf::Metadata *, const google::protobuf::Metadata *>>>::_Vector_impl" }
%"struct.std::_Vector_base<std::pair<const google::protobuf::Metadata *, const google::protobuf::Metadata *>, std::allocator<std::pair<const google::protobuf::Metadata *, const google::protobuf::Metadata *>>>::_Vector_impl" = type { %"struct.std::_Vector_base<std::pair<const google::protobuf::Metadata *, const google::protobuf::Metadata *>, std::allocator<std::pair<const google::protobuf::Metadata *, const google::protobuf::Metadata *>>>::_Vector_impl_data" }
%"struct.std::_Vector_base<std::pair<const google::protobuf::Metadata *, const google::protobuf::Metadata *>, std::allocator<std::pair<const google::protobuf::Metadata *, const google::protobuf::Metadata *>>>::_Vector_impl_data" = type { ptr, ptr, ptr }
%class.anon.38 = type { i8 }
%"class.__gnu_cxx::__normal_iterator.40" = type { ptr }

; Function Attrs: mustprogress nounwind uwtable
define linkonce_odr hidden void @_ZNSt15__new_allocatorISt4pairIPKN6google8protobuf8MetadataES5_EE10deallocateEPS6_m(ptr noundef nonnull align 1 dereferenceable(1) %0, ptr noundef %1, i64 noundef %2) #10 comdat align 2 {
  %4 = alloca ptr, align 8
  %5 = alloca ptr, align 8
  %6 = alloca i64, align 8
  store ptr %0, ptr %4, align 8, !tbaa !459
  store ptr %1, ptr %5, align 8, !tbaa !445
  store i64 %2, ptr %6, align 8, !tbaa !68
  %7 = load ptr, ptr %5, align 8, !tbaa !445
  call void @_ZdlPv(ptr noundef %7) #24
  ret void
}

; Function Attrs: mustprogress uwtable
define linkonce_odr hidden void @_ZNSt16allocator_traitsISaISt4pairIPKN6google8protobuf8MetadataES5_EEE10deallocateERS7_PS6_m(ptr noundef nonnull align 1 dereferenceable(1) %0, ptr noundef %1, i64 noundef %2) #4 comdat align 2 {
  %4 = alloca ptr, align 8
  %5 = alloca ptr, align 8
  %6 = alloca i64, align 8
  store ptr %0, ptr %4, align 8, !tbaa !454
  store ptr %1, ptr %5, align 8, !tbaa !445
  store i64 %2, ptr %6, align 8, !tbaa !68
  %7 = load ptr, ptr %4, align 8, !tbaa !454
  %8 = load ptr, ptr %5, align 8, !tbaa !445
  %9 = load i64, ptr %6, align 8, !tbaa !68
  call void @_ZNSt15__new_allocatorISt4pairIPKN6google8protobuf8MetadataES5_EE10deallocateEPS6_m(ptr noundef nonnull align 1 dereferenceable(1) %7, ptr noundef %8, i64 noundef %9)
  ret void
}

; Function Attrs: mustprogress nounwind uwtable
define linkonce_odr hidden void @_ZNSt12_Destroy_auxILb1EE9__destroyIPSt4pairIPKN6google8protobuf8MetadataES7_EEEvT_SA_(ptr noundef %0, ptr noundef %1) #10 comdat align 2 {
  %3 = alloca ptr, align 8
  %4 = alloca ptr, align 8
  store ptr %0, ptr %3, align 8, !tbaa !445
  store ptr %1, ptr %4, align 8, !tbaa !445
  ret void
}

; Function Attrs: mustprogress nounwind uwtable
define linkonce_odr hidden void @_ZNSt15__new_allocatorISt4pairIPKN6google8protobuf8MetadataES5_EED2Ev(ptr noundef nonnull align 1 dereferenceable(1) %0) unnamed_addr #10 comdat align 2 {
  %2 = alloca ptr, align 8
  store ptr %0, ptr %2, align 8, !tbaa !459
  ret void
}

; Function Attrs: mustprogress uwtable
define linkonce_odr hidden void @_ZNSt12_Vector_baseISt4pairIPKN6google8protobuf8MetadataES5_ESaIS6_EE13_M_deallocateEPS6_m(ptr noundef nonnull align 8 dereferenceable(24) %0, ptr noundef %1, i64 noundef %2) #4 comdat align 2 {
  %4 = alloca ptr, align 8
  %5 = alloca ptr, align 8
  %6 = alloca i64, align 8
  store ptr %0, ptr %4, align 8, !tbaa !456
  store ptr %1, ptr %5, align 8, !tbaa !445
  store i64 %2, ptr %6, align 8, !tbaa !68
  %7 = load ptr, ptr %4, align 8
  %8 = load ptr, ptr %5, align 8, !tbaa !445
  %9 = icmp ne ptr %8, null
  br i1 %9, label %10, label %14

10:                                               ; preds = %3
  %11 = getelementptr inbounds nuw %"struct.std::_Vector_base.34", ptr %7, i32 0, i32 0
  %12 = load ptr, ptr %5, align 8, !tbaa !445
  %13 = load i64, ptr %6, align 8, !tbaa !68
  call void @_ZNSt16allocator_traitsISaISt4pairIPKN6google8protobuf8MetadataES5_EEE10deallocateERS7_PS6_m(ptr noundef nonnull align 1 dereferenceable(1) %11, ptr noundef %12, i64 noundef %13)
  br label %14

14:                                               ; preds = %10, %3
  ret void
}

; Function Attrs: inlinehint mustprogress uwtable
define linkonce_odr hidden void @_ZSt8_DestroyIPSt4pairIPKN6google8protobuf8MetadataES5_EEvT_S8_(ptr noundef %0, ptr noundef %1) #7 comdat {
  %3 = alloca ptr, align 8
  %4 = alloca ptr, align 8
  store ptr %0, ptr %3, align 8, !tbaa !445
  store ptr %1, ptr %4, align 8, !tbaa !445
  %5 = load ptr, ptr %3, align 8, !tbaa !445
  %6 = load ptr, ptr %4, align 8, !tbaa !445
  call void @_ZNSt12_Destroy_auxILb1EE9__destroyIPSt4pairIPKN6google8protobuf8MetadataES7_EEEvT_SA_(ptr noundef %5, ptr noundef %6)
  ret void
}

; Function Attrs: noinline noreturn nounwind uwtable
define linkonce_odr hidden void @__clang_call_terminate(ptr noundef %0) #13 comdat {
  %2 = call ptr @__cxa_begin_catch(ptr %0) #3
  call void @_ZSt9terminatev() #21
  unreachable
}

; Function Attrs: mustprogress nounwind uwtable
define linkonce_odr hidden void @_ZNSt12_Vector_baseISt4pairIPKN6google8protobuf8MetadataES5_ESaIS6_EED2Ev(ptr noundef nonnull align 8 dereferenceable(24) %0) unnamed_addr #10 comdat align 2 personality ptr @__gxx_personality_v0 {
  %2 = alloca ptr, align 8
  store ptr %0, ptr %2, align 8, !tbaa !456
  %3 = load ptr, ptr %2, align 8
  %4 = getelementptr inbounds nuw %"struct.std::_Vector_base.34", ptr %3, i32 0, i32 0
  %5 = getelementptr inbounds nuw %"struct.std::_Vector_base<std::pair<const google::protobuf::Metadata *, const google::protobuf::Metadata *>, std::allocator<std::pair<const google::protobuf::Metadata *, const google::protobuf::Metadata *>>>::_Vector_impl_data", ptr %4, i32 0, i32 0
  %6 = load ptr, ptr %5, align 8, !tbaa !449
  %7 = getelementptr inbounds nuw %"struct.std::_Vector_base.34", ptr %3, i32 0, i32 0
  %8 = getelementptr inbounds nuw %"struct.std::_Vector_base<std::pair<const google::protobuf::Metadata *, const google::protobuf::Metadata *>, std::allocator<std::pair<const google::protobuf::Metadata *, const google::protobuf::Metadata *>>>::_Vector_impl_data", ptr %7, i32 0, i32 2
  %9 = load ptr, ptr %8, align 8, !tbaa !458
  %10 = getelementptr inbounds nuw %"struct.std::_Vector_base.34", ptr %3, i32 0, i32 0
  %11 = getelementptr inbounds nuw %"struct.std::_Vector_base<std::pair<const google::protobuf::Metadata *, const google::protobuf::Metadata *>, std::allocator<std::pair<const google::protobuf::Metadata *, const google::protobuf::Metadata *>>>::_Vector_impl_data", ptr %10, i32 0, i32 0
  %12 = load ptr, ptr %11, align 8, !tbaa !449
  %13 = ptrtoint ptr %9 to i64
  %14 = ptrtoint ptr %12 to i64
  %15 = sub i64 %13, %14
  %16 = sdiv exact i64 %15, 16
  invoke void @_ZNSt12_Vector_baseISt4pairIPKN6google8protobuf8MetadataES5_ESaIS6_EE13_M_deallocateEPS6_m(ptr noundef nonnull align 8 dereferenceable(24) %3, ptr noundef %6, i64 noundef %16)
          to label %17 unwind label %19

17:                                               ; preds = %1
  %18 = getelementptr inbounds nuw %"struct.std::_Vector_base.34", ptr %3, i32 0, i32 0
  call void @_ZNSt15__new_allocatorISt4pairIPKN6google8protobuf8MetadataES5_EED2Ev(ptr noundef nonnull align 8 dereferenceable(24) %18) #3
  ret void

19:                                               ; preds = %1
  %20 = landingpad { ptr, i32 }
          catch ptr null
  %21 = extractvalue { ptr, i32 } %20, 0
  call void @__clang_call_terminate(ptr %21) #21
  unreachable
}

; Function Attrs: inlinehint mustprogress uwtable
define linkonce_odr hidden void @_ZSt8_DestroyIPSt4pairIPKN6google8protobuf8MetadataES5_ES6_EvT_S8_RSaIT0_E(ptr noundef %0, ptr noundef %1, ptr noundef nonnull align 1 dereferenceable(1) %2) #7 comdat {
  %4 = alloca ptr, align 8
  %5 = alloca ptr, align 8
  %6 = alloca ptr, align 8
  store ptr %0, ptr %4, align 8, !tbaa !445
  store ptr %1, ptr %5, align 8, !tbaa !445
  store ptr %2, ptr %6, align 8, !tbaa !454
  %7 = load ptr, ptr %4, align 8, !tbaa !445
  %8 = load ptr, ptr %5, align 8, !tbaa !445
  call void @_ZSt8_DestroyIPSt4pairIPKN6google8protobuf8MetadataES5_EEvT_S8_(ptr noundef %7, ptr noundef %8)
  ret void
}

; Function Attrs: mustprogress nounwind uwtable
define linkonce_odr hidden noundef nonnull align 1 dereferenceable(1) ptr @_ZNSt12_Vector_baseISt4pairIPKN6google8protobuf8MetadataES5_ESaIS6_EE19_M_get_Tp_allocatorEv(ptr noundef nonnull align 8 dereferenceable(24) %0) #10 comdat align 2 {
  %2 = alloca ptr, align 8
  store ptr %0, ptr %2, align 8, !tbaa !456
  %3 = load ptr, ptr %2, align 8
  %4 = getelementptr inbounds nuw %"struct.std::_Vector_base.34", ptr %3, i32 0, i32 0
  ret ptr %4
}

; Function Attrs: mustprogress nounwind uwtable
define linkonce_odr hidden noundef nonnull align 8 dereferenceable(8) ptr @_ZNK9__gnu_cxx17__normal_iteratorIPSt4pairIPKN6google8protobuf8MetadataES6_ESt6vectorIS7_SaIS7_EEE4baseEv(ptr noundef nonnull align 8 dereferenceable(8) %0) #10 comdat align 2 {
  %2 = alloca ptr, align 8
  store ptr %0, ptr %2, align 8, !tbaa !443
  %3 = load ptr, ptr %2, align 8
  %4 = getelementptr inbounds nuw %"class.__gnu_cxx::__normal_iterator.40", ptr %3, i32 0, i32 0
  ret ptr %4
}

; Function Attrs: mustprogress nounwind uwtable
define linkonce_odr hidden void @_ZN9__gnu_cxx17__normal_iteratorIPSt4pairIPKN6google8protobuf8MetadataES6_ESt6vectorIS7_SaIS7_EEEC2ERKS8_(ptr noundef nonnull align 8 dereferenceable(8) %0, ptr noundef nonnull align 8 dereferenceable(8) %1) unnamed_addr #10 comdat align 2 {
  %3 = alloca ptr, align 8
  %4 = alloca ptr, align 8
  store ptr %0, ptr %3, align 8, !tbaa !443
  store ptr %1, ptr %4, align 8, !tbaa !452
  %5 = load ptr, ptr %3, align 8
  %6 = getelementptr inbounds nuw %"class.__gnu_cxx::__normal_iterator.40", ptr %5, i32 0, i32 0
  %7 = load ptr, ptr %4, align 8, !tbaa !452
  %8 = load ptr, ptr %7, align 8, !tbaa !445
  store ptr %8, ptr %6, align 8, !tbaa !447
  ret void
}

; Function Attrs: mustprogress nounwind uwtable
define linkonce_odr hidden void @_ZNSt6vectorISt4pairIPKN6google8protobuf8MetadataES5_ESaIS6_EED2Ev(ptr noundef nonnull align 8 dereferenceable(24) %0) unnamed_addr #10 comdat align 2 personality ptr @__gxx_personality_v0 {
  %2 = alloca ptr, align 8
  store ptr %0, ptr %2, align 8, !tbaa !437
  %3 = load ptr, ptr %2, align 8
  %4 = getelementptr inbounds nuw %"struct.std::_Vector_base.34", ptr %3, i32 0, i32 0
  %5 = getelementptr inbounds nuw %"struct.std::_Vector_base<std::pair<const google::protobuf::Metadata *, const google::protobuf::Metadata *>, std::allocator<std::pair<const google::protobuf::Metadata *, const google::protobuf::Metadata *>>>::_Vector_impl_data", ptr %4, i32 0, i32 0
  %6 = load ptr, ptr %5, align 8, !tbaa !449
  %7 = getelementptr inbounds nuw %"struct.std::_Vector_base.34", ptr %3, i32 0, i32 0
  %8 = getelementptr inbounds nuw %"struct.std::_Vector_base<std::pair<const google::protobuf::Metadata *, const google::protobuf::Metadata *>, std::allocator<std::pair<const google::protobuf::Metadata *, const google::protobuf::Metadata *>>>::_Vector_impl_data", ptr %7, i32 0, i32 1
  %9 = load ptr, ptr %8, align 8, !tbaa !451
  %10 = call noundef nonnull align 1 dereferenceable(1) ptr @_ZNSt12_Vector_baseISt4pairIPKN6google8protobuf8MetadataES5_ESaIS6_EE19_M_get_Tp_allocatorEv(ptr noundef nonnull align 8 dereferenceable(24) %3) #3
  invoke void @_ZSt8_DestroyIPSt4pairIPKN6google8protobuf8MetadataES5_ES6_EvT_S8_RSaIT0_E(ptr noundef %6, ptr noundef %9, ptr noundef nonnull align 1 dereferenceable(1) %10)
          to label %11 unwind label %12

11:                                               ; preds = %1
  call void @_ZNSt12_Vector_baseISt4pairIPKN6google8protobuf8MetadataES5_ESaIS6_EED2Ev(ptr noundef nonnull align 8 dereferenceable(24) %3) #3
  ret void

12:                                               ; preds = %1
  %13 = landingpad { ptr, i32 }
          catch ptr null
  %14 = extractvalue { ptr, i32 } %13, 0
  call void @__clang_call_terminate(ptr %14) #21
  unreachable
}

; Function Attrs: mustprogress nounwind uwtable
define linkonce_odr hidden noundef nonnull align 8 dereferenceable(8) ptr @_ZN9__gnu_cxx17__normal_iteratorIPSt4pairIPKN6google8protobuf8MetadataES6_ESt6vectorIS7_SaIS7_EEEppEv(ptr noundef nonnull align 8 dereferenceable(8) %0) #10 comdat align 2 {
  %2 = alloca ptr, align 8
  store ptr %0, ptr %2, align 8, !tbaa !443
  %3 = load ptr, ptr %2, align 8
  %4 = getelementptr inbounds nuw %"class.__gnu_cxx::__normal_iterator.40", ptr %3, i32 0, i32 0
  %5 = load ptr, ptr %4, align 8, !tbaa !447
  %6 = getelementptr inbounds nuw %"struct.std::pair", ptr %5, i32 1
  store ptr %6, ptr %4, align 8, !tbaa !447
  ret ptr %3
}

; Function Attrs: mustprogress nounwind uwtable
define linkonce_odr hidden noundef nonnull align 8 dereferenceable(16) ptr @_ZNK9__gnu_cxx17__normal_iteratorIPSt4pairIPKN6google8protobuf8MetadataES6_ESt6vectorIS7_SaIS7_EEEdeEv(ptr noundef nonnull align 8 dereferenceable(8) %0) #10 comdat align 2 {
  %2 = alloca ptr, align 8
  store ptr %0, ptr %2, align 8, !tbaa !443
  %3 = load ptr, ptr %2, align 8
  %4 = getelementptr inbounds nuw %"class.__gnu_cxx::__normal_iterator.40", ptr %3, i32 0, i32 0
  %5 = load ptr, ptr %4, align 8, !tbaa !447
  ret ptr %5
}

; Function Attrs: inlinehint mustprogress nounwind uwtable
define linkonce_odr hidden noundef zeroext i1 @_ZN9__gnu_cxxneIPSt4pairIPKN6google8protobuf8MetadataES6_ESt6vectorIS7_SaIS7_EEEEbRKNS_17__normal_iteratorIT_T0_EESH_(ptr noundef nonnull align 8 dereferenceable(8) %0, ptr noundef nonnull align 8 dereferenceable(8) %1) #6 comdat {
  %3 = alloca ptr, align 8
  %4 = alloca ptr, align 8
  store ptr %0, ptr %3, align 8, !tbaa !443
  store ptr %1, ptr %4, align 8, !tbaa !443
  %5 = load ptr, ptr %3, align 8, !tbaa !443
  %6 = call noundef nonnull align 8 dereferenceable(8) ptr @_ZNK9__gnu_cxx17__normal_iteratorIPSt4pairIPKN6google8protobuf8MetadataES6_ESt6vectorIS7_SaIS7_EEE4baseEv(ptr noundef nonnull align 8 dereferenceable(8) %5) #3
  %7 = load ptr, ptr %6, align 8, !tbaa !445
  %8 = load ptr, ptr %4, align 8, !tbaa !443
  %9 = call noundef nonnull align 8 dereferenceable(8) ptr @_ZNK9__gnu_cxx17__normal_iteratorIPSt4pairIPKN6google8protobuf8MetadataES6_ESt6vectorIS7_SaIS7_EEE4baseEv(ptr noundef nonnull align 8 dereferenceable(8) %8) #3
  %10 = load ptr, ptr %9, align 8, !tbaa !445
  %11 = icmp ne ptr %7, %10
  ret i1 %11
}

; Function Attrs: mustprogress nounwind uwtable
define linkonce_odr hidden ptr @_ZNSt6vectorISt4pairIPKN6google8protobuf8MetadataES5_ESaIS6_EE3endEv(ptr noundef nonnull align 8 dereferenceable(24) %0) #10 comdat align 2 {
  %2 = alloca %"class.__gnu_cxx::__normal_iterator.40", align 8
  %3 = alloca ptr, align 8
  store ptr %0, ptr %3, align 8, !tbaa !437
  %4 = load ptr, ptr %3, align 8
  %5 = getelementptr inbounds nuw %"struct.std::_Vector_base.34", ptr %4, i32 0, i32 0
  %6 = getelementptr inbounds nuw %"struct.std::_Vector_base<std::pair<const google::protobuf::Metadata *, const google::protobuf::Metadata *>, std::allocator<std::pair<const google::protobuf::Metadata *, const google::protobuf::Metadata *>>>::_Vector_impl_data", ptr %5, i32 0, i32 1
  call void @_ZN9__gnu_cxx17__normal_iteratorIPSt4pairIPKN6google8protobuf8MetadataES6_ESt6vectorIS7_SaIS7_EEEC2ERKS8_(ptr noundef nonnull align 8 dereferenceable(8) %2, ptr noundef nonnull align 8 dereferenceable(8) %6) #3
  %7 = getelementptr inbounds nuw %"class.__gnu_cxx::__normal_iterator.40", ptr %2, i32 0, i32 0
  %8 = load ptr, ptr %7, align 8
  ret ptr %8
}

; Function Attrs: mustprogress nounwind uwtable
define linkonce_odr hidden ptr @_ZNSt6vectorISt4pairIPKN6google8protobuf8MetadataES5_ESaIS6_EE5beginEv(ptr noundef nonnull align 8 dereferenceable(24) %0) #10 comdat align 2 {
  %2 = alloca %"class.__gnu_cxx::__normal_iterator.40", align 8
  %3 = alloca ptr, align 8
  store ptr %0, ptr %3, align 8, !tbaa !437
  %4 = load ptr, ptr %3, align 8
  %5 = getelementptr inbounds nuw %"struct.std::_Vector_base.34", ptr %4, i32 0, i32 0
  %6 = getelementptr inbounds nuw %"struct.std::_Vector_base<std::pair<const google::protobuf::Metadata *, const google::protobuf::Metadata *>, std::allocator<std::pair<const google::protobuf::Metadata *, const google::protobuf::Metadata *>>>::_Vector_impl_data", ptr %5, i32 0, i32 0
  call void @_ZN9__gnu_cxx17__normal_iteratorIPSt4pairIPKN6google8protobuf8MetadataES6_ESt6vectorIS7_SaIS7_EEEC2ERKS8_(ptr noundef nonnull align 8 dereferenceable(8) %2, ptr noundef nonnull align 8 dereferenceable(8) %6) #3
  %7 = getelementptr inbounds nuw %"class.__gnu_cxx::__normal_iterator.40", ptr %2, i32 0, i32 0
  %8 = load ptr, ptr %7, align 8
  ret ptr %8
}

; Function Attrs: mustprogress nounwind uwtable
define internal void @_ZN6google8protobuf12_GLOBAL__N_113MetadataOwnerD2Ev(ptr noundef nonnull align 8 dereferenceable(64) %0) unnamed_addr #10 align 2 {
  %2 = alloca ptr, align 8
  %3 = alloca ptr, align 8
  %4 = alloca %"class.__gnu_cxx::__normal_iterator.40", align 8
  %5 = alloca %"class.__gnu_cxx::__normal_iterator.40", align 8
  %6 = alloca i32, align 4
  %7 = alloca %"struct.std::pair", align 8
  %8 = alloca ptr, align 8
  store ptr %0, ptr %2, align 8, !tbaa !420
  %9 = load ptr, ptr %2, align 8
  call void @llvm.lifetime.start.p0(i64 8, ptr %3) #3
  %10 = getelementptr inbounds nuw %"struct.google::protobuf::(anonymous namespace)::MetadataOwner", ptr %9, i32 0, i32 1
  store ptr %10, ptr %3, align 8, !tbaa !437
  call void @llvm.lifetime.start.p0(i64 8, ptr %4) #3
  %11 = load ptr, ptr %3, align 8, !tbaa !437
  %12 = call ptr @_ZNSt6vectorISt4pairIPKN6google8protobuf8MetadataES5_ESaIS6_EE5beginEv(ptr noundef nonnull align 8 dereferenceable(24) %11) #3
  %13 = getelementptr inbounds nuw %"class.__gnu_cxx::__normal_iterator.40", ptr %4, i32 0, i32 0
  store ptr %12, ptr %13, align 8
  call void @llvm.lifetime.start.p0(i64 8, ptr %5) #3
  %14 = load ptr, ptr %3, align 8, !tbaa !437
  %15 = call ptr @_ZNSt6vectorISt4pairIPKN6google8protobuf8MetadataES5_ESaIS6_EE3endEv(ptr noundef nonnull align 8 dereferenceable(24) %14) #3
  %16 = getelementptr inbounds nuw %"class.__gnu_cxx::__normal_iterator.40", ptr %5, i32 0, i32 0
  store ptr %15, ptr %16, align 8
  br label %17

17:                                               ; preds = %41, %1
  %18 = call noundef zeroext i1 @_ZN9__gnu_cxxneIPSt4pairIPKN6google8protobuf8MetadataES6_ESt6vectorIS7_SaIS7_EEEEbRKNS_17__normal_iteratorIT_T0_EESH_(ptr noundef nonnull align 8 dereferenceable(8) %4, ptr noundef nonnull align 8 dereferenceable(8) %5) #3
  br i1 %18, label %20, label %19

19:                                               ; preds = %17
  store i32 2, ptr %6, align 4
  call void @llvm.lifetime.end.p0(i64 8, ptr %5) #3
  call void @llvm.lifetime.end.p0(i64 8, ptr %4) #3
  call void @llvm.lifetime.end.p0(i64 8, ptr %3) #3
  br label %43

20:                                               ; preds = %17
  call void @llvm.lifetime.start.p0(i64 16, ptr %7) #3
  %21 = call noundef nonnull align 8 dereferenceable(16) ptr @_ZNK9__gnu_cxx17__normal_iteratorIPSt4pairIPKN6google8protobuf8MetadataES6_ESt6vectorIS7_SaIS7_EEEdeEv(ptr noundef nonnull align 8 dereferenceable(8) %4) #3
  call void @llvm.memcpy.p0.p0.i64(ptr align 8 %7, ptr align 8 %21, i64 16, i1 false)
  call void @llvm.lifetime.start.p0(i64 8, ptr %8) #3
  %22 = getelementptr inbounds nuw %"struct.std::pair", ptr %7, i32 0, i32 0
  %23 = load ptr, ptr %22, align 8, !tbaa !439
  store ptr %23, ptr %8, align 8, !tbaa !281
  br label %24

24:                                               ; preds = %37, %20
  %25 = load ptr, ptr %8, align 8, !tbaa !281
  %26 = getelementptr inbounds nuw %"struct.std::pair", ptr %7, i32 0, i32 1
  %27 = load ptr, ptr %26, align 8, !tbaa !441
  %28 = icmp ult ptr %25, %27
  br i1 %28, label %30, label %29

29:                                               ; preds = %24
  store i32 4, ptr %6, align 4
  call void @llvm.lifetime.end.p0(i64 8, ptr %8) #3
  br label %40

30:                                               ; preds = %24
  %31 = load ptr, ptr %8, align 8, !tbaa !281
  %32 = getelementptr inbounds nuw %"struct.google::protobuf::Metadata", ptr %31, i32 0, i32 1
  %33 = load ptr, ptr %32, align 8, !tbaa !137
  %34 = icmp eq ptr %33, null
  br i1 %34, label %36, label %35

35:                                               ; preds = %30
  call void @_ZdlPv(ptr noundef %33) #24
  br label %36

36:                                               ; preds = %35, %30
  br label %37

37:                                               ; preds = %36
  %38 = load ptr, ptr %8, align 8, !tbaa !281
  %39 = getelementptr inbounds nuw %"struct.google::protobuf::Metadata", ptr %38, i32 1
  store ptr %39, ptr %8, align 8, !tbaa !281
  br label %24, !llvm.loop !442

40:                                               ; preds = %29
  call void @llvm.lifetime.end.p0(i64 16, ptr %7) #3
  br label %41

41:                                               ; preds = %40
  %42 = call noundef nonnull align 8 dereferenceable(8) ptr @_ZN9__gnu_cxx17__normal_iteratorIPSt4pairIPKN6google8protobuf8MetadataES6_ESt6vectorIS7_SaIS7_EEEppEv(ptr noundef nonnull align 8 dereferenceable(8) %4) #3
  br label %17

43:                                               ; preds = %19
  %44 = getelementptr inbounds nuw %"struct.google::protobuf::(anonymous namespace)::MetadataOwner", ptr %9, i32 0, i32 1
  call void @_ZNSt6vectorISt4pairIPKN6google8protobuf8MetadataES5_ESaIS6_EED2Ev(ptr noundef nonnull align 8 dereferenceable(24) %44) #3
  ret void
}

; Function Attrs: inlinehint mustprogress nounwind uwtable
define internal void @_ZZN6google8protobuf8internal16OnShutdownDeleteINS0_12_GLOBAL__N_113MetadataOwnerEEEPT_S6_ENKUlPKvE_clES8_(ptr noundef nonnull align 1 dereferenceable(1) %0, ptr noundef %1) #6 align 2 {
  %3 = alloca ptr, align 8
  %4 = alloca ptr, align 8
  store ptr %0, ptr %3, align 8, !tbaa !56
  store ptr %1, ptr %4, align 8, !tbaa !56
  %5 = load ptr, ptr %4, align 8, !tbaa !56
  %6 = icmp eq ptr %5, null
  br i1 %6, label %8, label %7

7:                                                ; preds = %2
  call void @_ZN6google8protobuf12_GLOBAL__N_113MetadataOwnerD2Ev(ptr noundef nonnull align 8 dereferenceable(64) %5) #3
  call void @_ZdlPv(ptr noundef %5) #24
  br label %8

8:                                                ; preds = %7, %2
  ret void
}

; Function Attrs: inlinehint mustprogress uwtable
define internal void @_ZZN6google8protobuf8internal16OnShutdownDeleteINS0_12_GLOBAL__N_113MetadataOwnerEEEPT_S6_ENUlPKvE_8__invokeES8_(ptr noundef %0) #7 align 2 {
  %2 = alloca ptr, align 8
  %3 = alloca %class.anon.38, align 1
  store ptr %0, ptr %2, align 8, !tbaa !56
  %4 = load ptr, ptr %2, align 8, !tbaa !56
  call void @_ZZN6google8protobuf8internal16OnShutdownDeleteINS0_12_GLOBAL__N_113MetadataOwnerEEEPT_S6_ENKUlPKvE_clES8_(ptr noundef nonnull align 1 dereferenceable(1) %3, ptr noundef %4)
  ret void
}