; Function Attrs: inlinehint mustprogress nounwind uwtable
define internal void @_ZZN6google8protobuf8internal16OnShutdownDeleteINS0_12_GLOBAL__N_113MetadataOwnerEEEPT_S6_ENUlPKvE_8__invokeES8_(ptr noundef %0) #16 align 2 personality ptr @__gxx_personality_v0 {
  %2 = icmp eq ptr %0, null
  br i1 %2, label %_ZZN6google8protobuf8internal16OnShutdownDeleteINS0_12_GLOBAL__N_113MetadataOwnerEEEPT_S6_ENKUlPKvE_clES8_.exit, label %3

3:                                                ; preds = %1
  %4 = getelementptr inbounds nuw i8, ptr %0, i64 40
  %5 = load ptr, ptr %4, align 8, !tbaa !329
  %6 = getelementptr inbounds nuw i8, ptr %0, i64 48
  %7 = load ptr, ptr %6, align 8, !tbaa !329
  %.not11.i.i = icmp eq ptr %5, %7
  br i1 %.not11.i.i, label %._crit_edge15.i.i, label %.lr.ph14.i.i

._crit_edge15.loopexit.i.i:                       ; preds = %._crit_edge.i.i
  %.pre.i.i = load ptr, ptr %4, align 8, !tbaa !297
  br label %._crit_edge15.i.i

._crit_edge15.i.i:                                ; preds = %._crit_edge15.loopexit.i.i, %3
  %8 = phi ptr [ %.pre.i.i, %._crit_edge15.loopexit.i.i ], [ %5, %3 ]
  %.not.i.i.i.i.i = icmp eq ptr %8, null
  br i1 %.not.i.i.i.i.i, label %_ZN6google8protobuf12_GLOBAL__N_113MetadataOwnerD2Ev.exit.i, label %9

9:                                                ; preds = %._crit_edge15.i.i
  tail call void @_ZdlPv(ptr noundef nonnull %8) #27
  br label %_ZN6google8protobuf12_GLOBAL__N_113MetadataOwnerD2Ev.exit.i

.lr.ph14.i.i:                                     ; preds = %3, %._crit_edge.i.i
  %.sroa.07.012.i.i = phi ptr [ %11, %._crit_edge.i.i ], [ %5, %3 ]
  %.sroa.0.0.copyload.i.i = load ptr, ptr %.sroa.07.012.i.i, align 8
  %.sroa.4.0..sroa_idx.i.i = getelementptr inbounds nuw i8, ptr %.sroa.07.012.i.i, i64 8
  %.sroa.4.0.copyload.i.i = load ptr, ptr %.sroa.4.0..sroa_idx.i.i, align 8
  %10 = icmp ult ptr %.sroa.0.0.copyload.i.i, %.sroa.4.0.copyload.i.i
  br i1 %10, label %.lr.ph.i.i, label %._crit_edge.i.i

._crit_edge.i.i:                                  ; preds = %16, %.lr.ph14.i.i
  %11 = getelementptr inbounds nuw i8, ptr %.sroa.07.012.i.i, i64 16
  %.not.i.i = icmp eq ptr %11, %7
  br i1 %.not.i.i, label %._crit_edge15.loopexit.i.i, label %.lr.ph14.i.i

.lr.ph.i.i:                                       ; preds = %.lr.ph14.i.i, %16
  %.010.i.i = phi ptr [ %17, %16 ], [ %.sroa.0.0.copyload.i.i, %.lr.ph14.i.i ]
  %12 = getelementptr inbounds nuw i8, ptr %.010.i.i, i64 8
  %13 = load ptr, ptr %12, align 8, !tbaa !308
  %14 = icmp eq ptr %13, null
  br i1 %14, label %16, label %15

15:                                               ; preds = %.lr.ph.i.i
  tail call void @_ZdlPv(ptr noundef nonnull %13) #27
  br label %16

16:                                               ; preds = %15, %.lr.ph.i.i
  %17 = getelementptr inbounds nuw i8, ptr %.010.i.i, i64 16
  %18 = icmp ult ptr %17, %.sroa.4.0.copyload.i.i
  br i1 %18, label %.lr.ph.i.i, label %._crit_edge.i.i, !llvm.loop !330

_ZN6google8protobuf12_GLOBAL__N_113MetadataOwnerD2Ev.exit.i: ; preds = %9, %._crit_edge15.i.i
  tail call void @_ZdlPv(ptr noundef nonnull %0) #27
  br label %_ZZN6google8protobuf8internal16OnShutdownDeleteINS0_12_GLOBAL__N_113MetadataOwnerEEEPT_S6_ENKUlPKvE_clES8_.exit

_ZZN6google8protobuf8internal16OnShutdownDeleteINS0_12_GLOBAL__N_113MetadataOwnerEEEPT_S6_ENKUlPKvE_clES8_.exit: ; preds = %1, %_ZN6google8protobuf12_GLOBAL__N_113MetadataOwnerD2Ev.exit.i
  ret void
}